; Function Attrs: mustprogress uwtable
define hidden void @_ZN7testing4Test14RecordPropertyERKNSt7__cxx1112basic_stringIcSt11char_traitsIcESaIcEEES8_(ptr noundef nonnull align 8 dereferenceable(32) %0, ptr noundef nonnull align 8 dereferenceable(32) %1) local_unnamed_addr #3 align 2 personality ptr @__gxx_personality_v0 {
  %3 = alloca %"class.testing::TestProperty", align 8
  %4 = load atomic i8, ptr @_ZGVZN7testing8UnitTest11GetInstanceEvE8instance acquire, align 8
  %5 = icmp eq i8 %4, 0
  br i1 %5, label %6, label %_ZN7testing8UnitTest11GetInstanceEv.exit, !prof !5

6:                                                ; preds = %2
  %7 = tail call i32 @__cxa_guard_acquire(ptr nonnull @_ZGVZN7testing8UnitTest11GetInstanceEvE8instance) #53
  %.not.i = icmp eq i32 %7, 0
  br i1 %.not.i, label %_ZN7testing8UnitTest11GetInstanceEv.exit, label %8

8:                                                ; preds = %6
  invoke void @_ZN7testing8UnitTestC2Ev(ptr noundef nonnull align 8 dereferenceable(24) @_ZZN7testing8UnitTest11GetInstanceEvE8instance)
          to label %9 unwind label %11

9:                                                ; preds = %8
  %10 = tail call i32 @__cxa_atexit(ptr nonnull @_ZN7testing8UnitTestD2Ev, ptr nonnull @_ZZN7testing8UnitTest11GetInstanceEvE8instance, ptr nonnull @__dso_handle) #53
  tail call void @__cxa_guard_release(ptr nonnull @_ZGVZN7testing8UnitTest11GetInstanceEvE8instance) #53
  br label %_ZN7testing8UnitTest11GetInstanceEv.exit

common.resume:                                    ; preds = %28, %11
  %common.resume.op = phi { ptr, i32 } [ %12, %11 ], [ %29, %28 ]
  resume { ptr, i32 } %common.resume.op

11:                                               ; preds = %8
  %12 = landingpad { ptr, i32 }
          cleanup
  tail call void @__cxa_guard_abort(ptr nonnull @_ZGVZN7testing8UnitTest11GetInstanceEvE8instance) #53
  br label %common.resume

_ZN7testing8UnitTest11GetInstanceEv.exit:         ; preds = %2, %6, %9
  %13 = load ptr, ptr getelementptr inbounds nuw (i8, ptr @_ZZN7testing8UnitTest11GetInstanceEvE8instance, i64 16), align 8
  call void @llvm.lifetime.start.p0(i64 64, ptr nonnull %3) #53
  call void @_ZN7testing12TestPropertyC2ERKNSt7__cxx1112basic_stringIcSt11char_traitsIcESaIcEEES8_(ptr noundef nonnull align 8 dereferenceable(64) %3, ptr noundef nonnull align 8 dereferenceable(32) %0, ptr noundef nonnull align 8 dereferenceable(32) %1)
  invoke void @_ZN7testing8internal12UnitTestImpl14RecordPropertyERKNS_12TestPropertyE(ptr noundef nonnull align 8 dereferenceable(401) %13, ptr noundef nonnull align 8 dereferenceable(64) %3)
          to label %14 unwind label %28

14:                                               ; preds = %_ZN7testing8UnitTest11GetInstanceEv.exit
  %15 = getelementptr inbounds nuw i8, ptr %3, i64 32
  %16 = load ptr, ptr %15, align 8
  %17 = getelementptr inbounds nuw i8, ptr %3, i64 48
  %18 = icmp eq ptr %16, %17
  br i1 %18, label %_ZNKSt7__cxx1112basic_stringIcSt11char_traitsIcESaIcEE11_M_is_localEv.exit.thread.i.i.i.i, label %_ZNKSt7__cxx1112basic_stringIcSt11char_traitsIcESaIcEE11_M_is_localEv.exit.i.i.i.i

_ZNKSt7__cxx1112basic_stringIcSt11char_traitsIcESaIcEE11_M_is_localEv.exit.thread.i.i.i.i: ; preds = %14
  %19 = getelementptr inbounds nuw i8, ptr %3, i64 40
  %20 = load i64, ptr %19, align 8
  %21 = icmp ult i64 %20, 16
  call void @llvm.assume(i1 %21)
  br label %_ZNSt7__cxx1112basic_stringIcSt11char_traitsIcESaIcEED2Ev.exit.i.i

_ZNKSt7__cxx1112basic_stringIcSt11char_traitsIcESaIcEE11_M_is_localEv.exit.i.i.i.i: ; preds = %14
  call void @_ZdlPv(ptr noundef %16) #54
  br label %_ZNSt7__cxx1112basic_stringIcSt11char_traitsIcESaIcEED2Ev.exit.i.i

_ZNSt7__cxx1112basic_stringIcSt11char_traitsIcESaIcEED2Ev.exit.i.i: ; preds = %_ZNKSt7__cxx1112basic_stringIcSt11char_traitsIcESaIcEE11_M_is_localEv.exit.i.i.i.i, %_ZNKSt7__cxx1112basic_stringIcSt11char_traitsIcESaIcEE11_M_is_localEv.exit.thread.i.i.i.i
  %22 = load ptr, ptr %3, align 8
  %23 = getelementptr inbounds nuw i8, ptr %3, i64 16
  %24 = icmp eq ptr %22, %23
  br i1 %24, label %_ZNKSt7__cxx1112basic_stringIcSt11char_traitsIcESaIcEE11_M_is_localEv.exit.thread.i.i2.i.i, label %_ZNKSt7__cxx1112basic_stringIcSt11char_traitsIcESaIcEE11_M_is_localEv.exit.i.i1.i.i

_ZNKSt7__cxx1112basic_stringIcSt11char_traitsIcESaIcEE11_M_is_localEv.exit.thread.i.i2.i.i: ; preds = %_ZNSt7__cxx1112basic_stringIcSt11char_traitsIcESaIcEED2Ev.exit.i.i
  %25 = getelementptr inbounds nuw i8, ptr %3, i64 8
  %26 = load i64, ptr %25, align 8
  %27 = icmp ult i64 %26, 16
  call void @llvm.assume(i1 %27)
  br label %_ZN7testing8UnitTest14RecordPropertyERKNSt7__cxx1112basic_stringIcSt11char_traitsIcESaIcEEES8_.exit

_ZNKSt7__cxx1112basic_stringIcSt11char_traitsIcESaIcEE11_M_is_localEv.exit.i.i1.i.i: ; preds = %_ZNSt7__cxx1112basic_stringIcSt11char_traitsIcESaIcEED2Ev.exit.i.i
  call void @_ZdlPv(ptr noundef %22) #54
  br label %_ZN7testing8UnitTest14RecordPropertyERKNSt7__cxx1112basic_stringIcSt11char_traitsIcESaIcEEES8_.exit

28:                                               ; preds = %_ZN7testing8UnitTest11GetInstanceEv.exit
  %29 = landingpad { ptr, i32 }
          cleanup
  call void @_ZN7testing12TestPropertyD2Ev(ptr noundef nonnull align 8 dereferenceable(64) %3) #53
  call void @llvm.lifetime.end.p0(i64 64, ptr nonnull %3) #53
  br label %common.resume

_ZN7testing8UnitTest14RecordPropertyERKNSt7__cxx1112basic_stringIcSt11char_traitsIcESaIcEEES8_.exit: ; preds = %_ZNKSt7__cxx1112basic_stringIcSt11char_traitsIcESaIcEE11_M_is_localEv.exit.thread.i.i2.i.i, %_ZNKSt7__cxx1112basic_stringIcSt11char_traitsIcESaIcEE11_M_is_localEv.exit.i.i1.i.i
  call void @llvm.lifetime.end.p0(i64 64, ptr nonnull %3) #53
  ret void
}